; Function Attrs: nounwind sspstrong uwtable
define dso_local void @ramblock_recv_bitmap_set_range(ptr noundef readonly captures(none) %rb, ptr noundef %host_addr, i64 noundef %nr) local_unnamed_addr #0 {
entry:
  %receivedmap = getelementptr inbounds nuw i8, ptr %rb, i64 392
  %0 = load ptr, ptr %receivedmap, align 8
  %1 = getelementptr i8, ptr %rb, i64 24
  %rb.val = load ptr, ptr %1, align 8
  %sub.ptr.lhs.cast.i = ptrtoint ptr %host_addr to i64
  %sub.ptr.rhs.cast.i = ptrtoint ptr %rb.val to i64
  %sub.ptr.sub.i = sub i64 %sub.ptr.lhs.cast.i, %sub.ptr.rhs.cast.i
  %shr.i = lshr i64 %sub.ptr.sub.i, 12
  tail call void @bitmap_set_atomic(ptr noundef %0, i64 noundef %shr.i, i64 noundef %nr) #18
  ret void
}